; Function Attrs: nounwind sspstrong uwtable
define internal i64 @enum_cycle_size(i64 noundef %0, i64 noundef %1, i64 %2) #0 {
  %4 = alloca i64, align 8
  call void @llvm.lifetime.start.p0(i64 8, ptr nonnull %4) #14
  %.not = icmp eq i64 %1, 0
  br i1 %.not, label %rb_num2long_inline.exit, label %5

5:                                                ; preds = %3
  %6 = inttoptr i64 %1 to ptr
  %7 = load i64, ptr %6, align 8, !tbaa !20
  %8 = and i64 %7, 8192
  %.not.i = icmp eq i64 %8, 0
  br i1 %.not.i, label %rb_array_len.exit, label %rb_array_len.exit.thread

rb_array_len.exit:                                ; preds = %5
  %9 = getelementptr inbounds nuw i8, ptr %6, i64 16
  %10 = load i64, ptr %9, align 8, !tbaa !22
  %11 = icmp sgt i64 %10, 0
  br i1 %11, label %14, label %rb_num2long_inline.exit

rb_array_len.exit.thread:                         ; preds = %5
  %12 = and i64 %7, 4161536
  %.not18 = icmp eq i64 %12, 0
  br i1 %.not18, label %rb_num2long_inline.exit, label %.thread

.thread:                                          ; preds = %rb_array_len.exit.thread
  %13 = getelementptr inbounds nuw i8, ptr %6, i64 16
  br label %RARRAY_AREF.exit

14:                                               ; preds = %rb_array_len.exit
  %15 = getelementptr inbounds nuw i8, ptr %6, i64 32
  %16 = load ptr, ptr %15, align 8, !tbaa !22
  br label %RARRAY_AREF.exit

RARRAY_AREF.exit:                                 ; preds = %.thread, %14
  %.0.i.i = phi ptr [ %13, %.thread ], [ %16, %14 ]
  %17 = load i64, ptr %.0.i.i, align 8, !tbaa !7
  %18 = icmp eq i64 %17, 4
  br i1 %18, label %rb_num2long_inline.exit, label %19

19:                                               ; preds = %RARRAY_AREF.exit
  %20 = and i64 %17, 1
  %.not.i14 = icmp eq i64 %20, 0
  br i1 %.not.i14, label %23, label %21

21:                                               ; preds = %19
  %22 = ashr i64 %17, 1
  br label %rb_num2long_inline.exit

23:                                               ; preds = %19
  %24 = tail call i64 @rb_num2long(i64 noundef %17) #14
  br label %rb_num2long_inline.exit

rb_num2long_inline.exit:                          ; preds = %23, %21, %rb_array_len.exit.thread, %RARRAY_AREF.exit, %rb_array_len.exit, %3
  %25 = phi i1 [ true, %RARRAY_AREF.exit ], [ true, %rb_array_len.exit ], [ true, %3 ], [ true, %rb_array_len.exit.thread ], [ false, %21 ], [ false, %23 ]
  %.012 = phi i64 [ 0, %RARRAY_AREF.exit ], [ 0, %rb_array_len.exit ], [ 0, %3 ], [ 0, %rb_array_len.exit.thread ], [ %22, %21 ], [ %24, %23 ]
  %26 = tail call i64 @rb_check_funcall_default(i64 noundef %0, i64 noundef 3025, i32 noundef 0, ptr noundef null, i64 noundef 4) #14
  switch i64 %26, label %27 [
    i64 4, label %.fold.split
    i64 1, label %.fold.split
  ]

27:                                               ; preds = %rb_num2long_inline.exit
  br i1 %25, label %28, label %30

28:                                               ; preds = %27
  %29 = tail call i64 @rb_float_new_in_heap(double noundef 0x7FF0000000000000) #14
  br label %.fold.split

30:                                               ; preds = %27
  %31 = icmp slt i64 %.012, 1
  br i1 %31, label %.fold.split, label %32

32:                                               ; preds = %30
  %33 = shl nuw i64 %.012, 1
  %34 = or disjoint i64 %33, 1
  store i64 %34, ptr %4, align 8, !tbaa !7
  %35 = call i64 @rb_funcallv(i64 noundef %26, i64 noundef 42, i32 noundef 1, ptr noundef nonnull %4) #14
  br label %.fold.split

.fold.split:                                      ; preds = %rb_num2long_inline.exit, %rb_num2long_inline.exit, %30, %32, %28
  %.0 = phi i64 [ %29, %28 ], [ %35, %32 ], [ %26, %rb_num2long_inline.exit ], [ 1, %30 ], [ %26, %rb_num2long_inline.exit ]
  call void @llvm.lifetime.end.p0(i64 8, ptr nonnull %4) #14
  ret i64 %.0
}